; ModuleID = '32/178.c'
source_filename = "32/178.c"
target datalayout = "e-m:e-p270:32:32-p271:32:32-p272:64:64-i64:64-f80:128-n8:16:32:64-S128"
target triple = "x86_64-pc-linux-gnu"

@.str = private unnamed_addr constant [3 x i8] c"%d\00", align 1
@.str.1 = private unnamed_addr constant [3 x i8] c"%s\00", align 1
@.str.2 = private unnamed_addr constant [3 x i8] c"%c\00", align 1
@.str.3 = private unnamed_addr constant [3 x i8] c"\0A\0A\00", align 1

; Function Attrs: noinline nounwind uwtable
define dso_local void @main() #0 {
  %1 = alloca [100 x i8], align 16
  %2 = alloca [100 x i8], align 16
  %3 = alloca i32, align 4
  %4 = alloca i32, align 4
  %5 = alloca i32, align 4
  %6 = alloca i32, align 4
  %7 = alloca i32, align 4
  %8 = call i32 (i8*, ...) @__isoc99_scanf(i8* getelementptr inbounds ([3 x i8], [3 x i8]* @.str, i64 0, i64 0), i32* %3)
  store i32 0, i32* %7, align 4
  br label %9

9:                                                ; preds = %154, %0
  %10 = load i32, i32* %7, align 4
  %11 = load i32, i32* %3, align 4
  %12 = icmp slt i32 %10, %11
  br i1 %12, label %13, label %157

13:                                               ; preds = %9
  %14 = getelementptr inbounds [100 x i8], [100 x i8]* %1, i64 0, i64 0
  %15 = call i32 (i8*, ...) @__isoc99_scanf(i8* getelementptr inbounds ([3 x i8], [3 x i8]* @.str.1, i64 0, i64 0), i8* %14)
  %16 = getelementptr inbounds [100 x i8], [100 x i8]* %2, i64 0, i64 0
  %17 = call i32 (i8*, ...) @__isoc99_scanf(i8* getelementptr inbounds ([3 x i8], [3 x i8]* @.str.1, i64 0, i64 0), i8* %16)
  %18 = getelementptr inbounds [100 x i8], [100 x i8]* %1, i64 0, i64 0
  %19 = call i64 @strlen(i8* %18) #3
  %20 = trunc i64 %19 to i32
  store i32 %20, i32* %4, align 4
  %21 = getelementptr inbounds [100 x i8], [100 x i8]* %2, i64 0, i64 0
  %22 = call i64 @strlen(i8* %21) #3
  %23 = trunc i64 %22 to i32
  store i32 %23, i32* %5, align 4
  store i32 0, i32* %6, align 4
  br label %24

24:                                               ; preds = %114, %13
  %25 = load i32, i32* %6, align 4
  %26 = load i32, i32* %5, align 4
  %27 = icmp slt i32 %25, %26
  br i1 %27, label %28, label %117

28:                                               ; preds = %24
  %29 = load i32, i32* %4, align 4
  %30 = sub nsw i32 %29, 1
  %31 = load i32, i32* %6, align 4
  %32 = sub nsw i32 %30, %31
  %33 = sext i32 %32 to i64
  %34 = getelementptr inbounds [100 x i8], [100 x i8]* %1, i64 0, i64 %33
  %35 = load i8, i8* %34, align 1
  %36 = sext i8 %35 to i32
  %37 = load i32, i32* %5, align 4
  %38 = sub nsw i32 %37, 1
  %39 = load i32, i32* %6, align 4
  %40 = sub nsw i32 %38, %39
  %41 = sext i32 %40 to i64
  %42 = getelementptr inbounds [100 x i8], [100 x i8]* %2, i64 0, i64 %41
  %43 = load i8, i8* %42, align 1
  %44 = sext i8 %43 to i32
  %45 = icmp slt i32 %36, %44
  br i1 %45, label %46, label %88

46:                                               ; preds = %28
  %47 = load i32, i32* %4, align 4
  %48 = sub nsw i32 %47, 1
  %49 = load i32, i32* %6, align 4
  %50 = sub nsw i32 %48, %49
  %51 = sext i32 %50 to i64
  %52 = getelementptr inbounds [100 x i8], [100 x i8]* %1, i64 0, i64 %51
  %53 = load i8, i8* %52, align 1
  %54 = sext i8 %53 to i32
  %55 = add nsw i32 %54, 10
  %56 = load i32, i32* %5, align 4
  %57 = sub nsw i32 %56, 1
  %58 = load i32, i32* %6, align 4
  %59 = sub nsw i32 %57, %58
  %60 = sext i32 %59 to i64
  %61 = getelementptr inbounds [100 x i8], [100 x i8]* %2, i64 0, i64 %60
  %62 = load i8, i8* %61, align 1
  %63 = sext i8 %62 to i32
  %64 = sub nsw i32 %55, %63
  %65 = trunc i32 %64 to i8
  %66 = load i32, i32* %4, align 4
  %67 = sub nsw i32 %66, 1
  %68 = load i32, i32* %6, align 4
  %69 = sub nsw i32 %67, %68
  %70 = sext i32 %69 to i64
  %71 = getelementptr inbounds [100 x i8], [100 x i8]* %1, i64 0, i64 %70
  store i8 %65, i8* %71, align 1
  %72 = load i32, i32* %4, align 4
  %73 = sub nsw i32 %72, 2
  %74 = load i32, i32* %6, align 4
  %75 = sub nsw i32 %73, %74
  %76 = sext i32 %75 to i64
  %77 = getelementptr inbounds [100 x i8], [100 x i8]* %1, i64 0, i64 %76
  %78 = load i8, i8* %77, align 1
  %79 = sext i8 %78 to i32
  %80 = sub nsw i32 %79, 1
  %81 = trunc i32 %80 to i8
  %82 = load i32, i32* %4, align 4
  %83 = sub nsw i32 %82, 2
  %84 = load i32, i32* %6, align 4
  %85 = sub nsw i32 %83, %84
  %86 = sext i32 %85 to i64
  %87 = getelementptr inbounds [100 x i8], [100 x i8]* %1, i64 0, i64 %86
  store i8 %81, i8* %87, align 1
  br label %113

88:                                               ; preds = %28
  %89 = load i32, i32* %4, align 4
  %90 = sub nsw i32 %89, 1
  %91 = load i32, i32* %6, align 4
  %92 = sub nsw i32 %90, %91
  %93 = sext i32 %92 to i64
  %94 = getelementptr inbounds [100 x i8], [100 x i8]* %1, i64 0, i64 %93
  %95 = load i8, i8* %94, align 1
  %96 = sext i8 %95 to i32
  %97 = load i32, i32* %5, align 4
  %98 = sub nsw i32 %97, 1
  %99 = load i32, i32* %6, align 4
  %100 = sub nsw i32 %98, %99
  %101 = sext i32 %100 to i64
  %102 = getelementptr inbounds [100 x i8], [100 x i8]* %2, i64 0, i64 %101
  %103 = load i8, i8* %102, align 1
  %104 = sext i8 %103 to i32
  %105 = sub nsw i32 %96, %104
  %106 = trunc i32 %105 to i8
  %107 = load i32, i32* %4, align 4
  %108 = sub nsw i32 %107, 1
  %109 = load i32, i32* %6, align 4
  %110 = sub nsw i32 %108, %109
  %111 = sext i32 %110 to i64
  %112 = getelementptr inbounds [100 x i8], [100 x i8]* %1, i64 0, i64 %111
  store i8 %106, i8* %112, align 1
  br label %113

113:                                              ; preds = %88, %46
  br label %114

114:                                              ; preds = %113
  %115 = load i32, i32* %6, align 4
  %116 = add nsw i32 %115, 1
  store i32 %116, i32* %6, align 4
  br label %24

117:                                              ; preds = %24
  store i32 0, i32* %6, align 4
  br label %118

118:                                              ; preds = %131, %117
  %119 = load i32, i32* %6, align 4
  %120 = load i32, i32* %4, align 4
  %121 = load i32, i32* %5, align 4
  %122 = sub nsw i32 %120, %121
  %123 = icmp slt i32 %119, %122
  br i1 %123, label %124, label %134

124:                                              ; preds = %118
  %125 = load i32, i32* %6, align 4
  %126 = sext i32 %125 to i64
  %127 = getelementptr inbounds [100 x i8], [100 x i8]* %1, i64 0, i64 %126
  %128 = load i8, i8* %127, align 1
  %129 = sext i8 %128 to i32
  %130 = call i32 (i8*, ...) @printf(i8* getelementptr inbounds ([3 x i8], [3 x i8]* @.str.2, i64 0, i64 0), i32 %129)
  br label %131

131:                                              ; preds = %124
  %132 = load i32, i32* %6, align 4
  %133 = add nsw i32 %132, 1
  store i32 %133, i32* %6, align 4
  br label %118

134:                                              ; preds = %118
  %135 = load i32, i32* %4, align 4
  %136 = load i32, i32* %5, align 4
  %137 = sub nsw i32 %135, %136
  store i32 %137, i32* %6, align 4
  br label %138

138:                                              ; preds = %149, %134
  %139 = load i32, i32* %6, align 4
  %140 = load i32, i32* %4, align 4
  %141 = icmp slt i32 %139, %140
  br i1 %141, label %142, label %152

142:                                              ; preds = %138
  %143 = load i32, i32* %6, align 4
  %144 = sext i32 %143 to i64
  %145 = getelementptr inbounds [100 x i8], [100 x i8]* %1, i64 0, i64 %144
  %146 = load i8, i8* %145, align 1
  %147 = sext i8 %146 to i32
  %148 = call i32 (i8*, ...) @printf(i8* getelementptr inbounds ([3 x i8], [3 x i8]* @.str, i64 0, i64 0), i32 %147)
  br label %149

149:                                              ; preds = %142
  %150 = load i32, i32* %6, align 4
  %151 = add nsw i32 %150, 1
  store i32 %151, i32* %6, align 4
  br label %138

152:                                              ; preds = %138
  %153 = call i32 (i8*, ...) @printf(i8* getelementptr inbounds ([3 x i8], [3 x i8]* @.str.3, i64 0, i64 0))
  br label %154

154:                                              ; preds = %152
  %155 = load i32, i32* %7, align 4
  %156 = add nsw i32 %155, 1
  store i32 %156, i32* %7, align 4
  br label %9

157:                                              ; preds = %9
  ret void
}

declare dso_local i32 @__isoc99_scanf(i8*, ...) #1

; Function Attrs: nounwind readonly
declare dso_local i64 @strlen(i8*) #2

declare dso_local i32 @printf(i8*, ...) #1


!llvm.module.flags = !{!0}
!llvm.ident = !{!1}

!0 = !{i32 1, !"wchar_size", i32 4}
!1 = !{!"clang version 10.0.0-4ubuntu1 "}
