; ModuleID = 'source-C-CXX/31/178.c'
source_filename = "source-C-CXX/31/178.c"
target datalayout = "e-m:e-p270:32:32-p271:32:32-p272:64:64-i64:64-f80:128-n8:16:32:64-S128"
target triple = "x86_64-pc-linux-gnu"

@.str = private unnamed_addr constant [3 x i8] c"%d\00", align 1
@.str.1 = private unnamed_addr constant [3 x i8] c"%s\00", align 1
@str = private unnamed_addr constant [2 x i8] c"\0A\00", align 1

; Function Attrs: nofree nounwind sspstrong uwtable
define dso_local void @main() local_unnamed_addr #0 {
  %1 = alloca [100 x i8], align 16
  %2 = alloca [100 x i8], align 16
  %3 = alloca i32, align 4
  %4 = getelementptr inbounds [100 x i8], [100 x i8]* %1, i64 0, i64 0
  call void @llvm.lifetime.start.p0i8(i64 100, i8* nonnull %4) #5
  %5 = getelementptr inbounds [100 x i8], [100 x i8]* %2, i64 0, i64 0
  call void @llvm.lifetime.start.p0i8(i64 100, i8* nonnull %5) #5
  %6 = bitcast i32* %3 to i8*
  call void @llvm.lifetime.start.p0i8(i64 4, i8* nonnull %6) #5
  %7 = call i32 (i8*, ...) @__isoc99_scanf(i8* getelementptr inbounds ([3 x i8], [3 x i8]* @.str, i64 0, i64 0), i32* nonnull %3)
  %8 = load i32, i32* %3, align 4, !tbaa !5
  %9 = icmp sgt i32 %8, 0
  br i1 %9, label %10, label %80

10:                                               ; preds = %0, %75
  %11 = phi i32 [ %77, %75 ], [ 0, %0 ]
  %12 = call i32 (i8*, ...) @__isoc99_scanf(i8* getelementptr inbounds ([3 x i8], [3 x i8]* @.str.1, i64 0, i64 0), i8* nonnull %4)
  %13 = call i32 (i8*, ...) @__isoc99_scanf(i8* getelementptr inbounds ([3 x i8], [3 x i8]* @.str.1, i64 0, i64 0), i8* nonnull %5)
  %14 = call i64 @strlen(i8* noundef nonnull %4) #6
  %15 = trunc i64 %14 to i32
  %16 = call i64 @strlen(i8* noundef nonnull %5) #6
  %17 = trunc i64 %16 to i32
  %18 = add i64 %14, 4294967294
  %19 = icmp sgt i32 %17, 0
  br i1 %19, label %20, label %22

20:                                               ; preds = %10
  %21 = and i64 %16, 4294967295
  br label %27

22:                                               ; preds = %51, %10
  %23 = sub i32 %15, %17
  %24 = icmp sgt i32 %23, 0
  br i1 %24, label %25, label %54

25:                                               ; preds = %22
  %26 = zext i32 %23 to i64
  br label %59

27:                                               ; preds = %20, %51
  %28 = phi i64 [ 0, %20 ], [ %52, %51 ]
  %29 = trunc i64 %28 to i32
  %30 = xor i32 %29, -1
  %31 = add i32 %30, %15
  %32 = sext i32 %31 to i64
  %33 = getelementptr inbounds [100 x i8], [100 x i8]* %1, i64 0, i64 %32
  %34 = load i8, i8* %33, align 1, !tbaa !9
  %35 = add i32 %30, %17
  %36 = sext i32 %35 to i64
  %37 = getelementptr inbounds [100 x i8], [100 x i8]* %2, i64 0, i64 %36
  %38 = load i8, i8* %37, align 1, !tbaa !9
  %39 = icmp slt i8 %34, %38
  br i1 %39, label %40, label %49

40:                                               ; preds = %27
  %41 = add i8 %34, 10
  %42 = sub i8 %41, %38
  store i8 %42, i8* %33, align 1, !tbaa !9
  %43 = sub i64 %18, %28
  %44 = shl i64 %43, 32
  %45 = ashr exact i64 %44, 32
  %46 = getelementptr inbounds [100 x i8], [100 x i8]* %1, i64 0, i64 %45
  %47 = load i8, i8* %46, align 1, !tbaa !9
  %48 = add i8 %47, -1
  store i8 %48, i8* %46, align 1, !tbaa !9
  br label %51

49:                                               ; preds = %27
  %50 = sub i8 %34, %38
  store i8 %50, i8* %33, align 1, !tbaa !9
  br label %51

51:                                               ; preds = %40, %49
  %52 = add nuw nsw i64 %28, 1
  %53 = icmp eq i64 %52, %21
  br i1 %53, label %22, label %27, !llvm.loop !10

54:                                               ; preds = %59, %22
  br i1 %19, label %55, label %75

55:                                               ; preds = %54
  %56 = sext i32 %23 to i64
  %57 = shl i64 %14, 32
  %58 = ashr exact i64 %57, 32
  br label %67

59:                                               ; preds = %25, %59
  %60 = phi i64 [ 0, %25 ], [ %65, %59 ]
  %61 = getelementptr inbounds [100 x i8], [100 x i8]* %1, i64 0, i64 %60
  %62 = load i8, i8* %61, align 1, !tbaa !9
  %63 = sext i8 %62 to i32
  %64 = call i32 @putchar(i32 %63)
  %65 = add nuw nsw i64 %60, 1
  %66 = icmp eq i64 %65, %26
  br i1 %66, label %54, label %59, !llvm.loop !12

67:                                               ; preds = %55, %67
  %68 = phi i64 [ %56, %55 ], [ %73, %67 ]
  %69 = getelementptr inbounds [100 x i8], [100 x i8]* %1, i64 0, i64 %68
  %70 = load i8, i8* %69, align 1, !tbaa !9
  %71 = sext i8 %70 to i32
  %72 = call i32 (i8*, ...) @printf(i8* nonnull dereferenceable(1) getelementptr inbounds ([3 x i8], [3 x i8]* @.str, i64 0, i64 0), i32 %71)
  %73 = add nsw i64 %68, 1
  %74 = icmp slt i64 %73, %58
  br i1 %74, label %67, label %75, !llvm.loop !13

75:                                               ; preds = %67, %54
  %76 = call i32 @puts(i8* nonnull dereferenceable(1) getelementptr inbounds ([2 x i8], [2 x i8]* @str, i64 0, i64 0))
  %77 = add nuw nsw i32 %11, 1
  %78 = load i32, i32* %3, align 4, !tbaa !5
  %79 = icmp slt i32 %77, %78
  br i1 %79, label %10, label %80, !llvm.loop !14

80:                                               ; preds = %75, %0
  call void @llvm.lifetime.end.p0i8(i64 4, i8* nonnull %6) #5
  call void @llvm.lifetime.end.p0i8(i64 100, i8* nonnull %5) #5
  call void @llvm.lifetime.end.p0i8(i64 100, i8* nonnull %4) #5
  ret void
}

; Function Attrs: argmemonly mustprogress nofree nosync nounwind willreturn
declare void @llvm.lifetime.start.p0i8(i64 immarg, i8* nocapture) #1

; Function Attrs: nofree nounwind
declare noundef i32 @__isoc99_scanf(i8* nocapture noundef readonly, ...) local_unnamed_addr #2

; Function Attrs: argmemonly mustprogress nofree nounwind readonly willreturn
declare i64 @strlen(i8* nocapture) local_unnamed_addr #3

; Function Attrs: nofree nounwind
declare noundef i32 @printf(i8* nocapture noundef readonly, ...) local_unnamed_addr #2

; Function Attrs: argmemonly mustprogress nofree nosync nounwind willreturn
declare void @llvm.lifetime.end.p0i8(i64 immarg, i8* nocapture) #1

; Function Attrs: nofree nounwind
declare noundef i32 @puts(i8* nocapture noundef readonly) local_unnamed_addr #4

; Function Attrs: nofree nounwind
declare noundef i32 @putchar(i32 noundef) local_unnamed_addr #4


!llvm.module.flags = !{!0, !1, !2, !3}
!llvm.ident = !{!4}

!0 = !{i32 1, !"wchar_size", i32 4}
!1 = !{i32 7, !"PIC Level", i32 2}
!2 = !{i32 7, !"PIE Level", i32 2}
!3 = !{i32 7, !"uwtable", i32 1}
!4 = !{!"clang version 13.0.0"}
!5 = !{!6, !6, i64 0}
!6 = !{!"int", !7, i64 0}
!7 = !{!"omnipotent char", !8, i64 0}
!8 = !{!"Simple C/C++ TBAA"}
!9 = !{!7, !7, i64 0}
!10 = distinct !{!10, !11}
!11 = !{!"llvm.loop.mustprogress"}
!12 = distinct !{!12, !11}
!13 = distinct !{!13, !11}
!14 = distinct !{!14, !11}
